(dp0
S'Agian'
p1
I0
sS'Mike'
p2
I0
sS'Test P2 (All Wins)'
p3
I0
sS'Don'
p4
I947
sS"Tester's Brother"
p5
I224
sS'Phil'
p6
I693
sS'Rod'
p7
I291
sS'Declan'
p8
I0
sS'Erin'
p9
I547
sS'Wood'
p10
I0
sS'Jack'
p11
I675
sS'asdfgasdg'
p12
I0
sS'Again'
p13
I0
sS'New'
p14
I705
sS'Test P3 (Some Wins)'
p15
I0
sS'Peter'
p16
I624
sS'Terry'
p17
I675
sS'Best'
p18
I998
s.